cwerkzeug.datastructures
ImmutableMultiDict
p1
((lp2
(S'spam_score'
p3
V0.012
p4
tp5
a(S'spam_report'
p6
VSpam detection software, running on the system "mx-023.sjc1.sendgrid.net", has\u000aidentified this incoming email as possible spam.  The original message\u000ahas been attached to this so you can view it (if it isn't spam) or label\u000asimilar future email.  If you have any questions, see\u000a@@CONTACT_ADDRESS@@ for details.\u000a\u000aContent preview:  sadfsfsdasfsd sadfsfsdasfsd [...] \u000a\u000aContent analysis details:   (0.0 points, 5.0 required)\u000a\u000a pts rule name              description\u000a---- ---------------------- --------------------------------------------------\u000a 0.0 HTML_MESSAGE           BODY: HTML included in message\u000a 0.0 T_MIME_NO_TEXT         No text body parts\u000a 0.0 TVD_SPACE_RATIO        TVD_SPACE_RATIO\u000a\u000a
p7
tp8
a(S'from'
p9
V"Krishna C. Garikipati" <gkchai@eecs.umich.edu>
p10
tp11
a(S'attachments'
p12
V0
tp13
a(S'headers'
p14
VReceived: by mx-023.sjc1.sendgrid.net with SMTP id L9PPr2s9mK Tue, 30 Jun 2015 01:59:53 +0000 (UTC)\u000aReceived: from mail-oi0-f52.google.com (mail-oi0-f52.google.com [209.85.218.52]) by mx-023.sjc1.sendgrid.net (Postfix) with ESMTPS id C83B6C03FF1 for <sara@autoscientist.com>; Tue, 30 Jun 2015 01:59:53 +0000 (UTC)\u000aReceived: by oiyy130 with SMTP id y130so131170409oiy.0 for <sara@autoscientist.com>; Mon, 29 Jun 2015 18:59:53 -0700 (PDT)\u000aX-Google-DKIM-Signature: v=1; a=rsa-sha256; c=relaxed/relaxed; d=1e100.net; s=20130820; h=x-gm-message-state:mime-version:sender:date:message-id:subject:from :to:cc:content-type; bh=NEfLy/9QWNdAk5Ub9fXJaxNg5oaDM5lowrT8nxqD0Gs=; b=Bc3AUWrXwhEEJpgdFV2ru9MJbxUi2WqqoSedY5IlcqG1LJ/q8C73xiC6T1ebEVSUkz A//n+R84gxPRFmlAFPSMLXTMDt6EtsKZDIsgwx/7QcqvNB2LI7u0BoDtmJWaWcg6rbJr rU0M4+YEaPx5PGWBHmaU7hNkgPSUd9NbZ5qIl//8T8npLuYY1RL++ikQIT/JTyehBoqc YVW4e1UbtRIzunbVS9N6j9E+U1qKxamgmahgrijKtBTumPOMEjqW36yaEvktBF4APaVc 1Is5wzNtVdCU8xgOvizx1+4FZtWR6NuPqAS7BJiwwdud3+yZCpA+kfnrTOpr1vfxpyS0 YnOA==\u000aX-Gm-Message-State: ALoCoQnqDOP8otJ5iYpglFpkBwSeBAcIEbcFrmTqH5htfl8P5wHbyFHm7XhW5fvibLFAt7+19r13\u000aMIME-Version: 1.0\u000aX-Received: by 10.182.33.38 with SMTP id o6mr14389026obi.41.1435629593212; Mon, 29 Jun 2015 18:59:53 -0700 (PDT)\u000aSender: gkchai@umich.edu\u000aReceived: by 10.202.55.130 with HTTP; Mon, 29 Jun 2015 18:59:53 -0700 (PDT)\u000aDate: Mon, 29 Jun 2015 21:59:53 -0400\u000aX-Google-Sender-Auth: 0Zzqq84OLFUNKuBpTiEuOJXp6S8\u000aMessage-ID: <CAF_e5pG1i_1qQYgvvZo=k8g89mWXrPTyPKug=Oui3R2QeNhzrg@mail.gmail.com>\u000aSubject: fdadsa\u000aFrom: "Krishna C. Garikipati" <gkchai@eecs.umich.edu>\u000aTo: "Krishna C. Garikipati" <gkciitd@gmail.com>\u000aCc: sara@autoscientist.com\u000aContent-Type: multipart/alternative; boundary=089e011838f0eefcc30519b28f7a\u000a
p15
tp16
a(S'cc'
p17
Vsara@autoscientist.com
p18
tp19
a(S'text'
p20
Vsadfsfsdasfsd\u000a
p21
tp22
a(S'envelope'
p23
V{"to":["sara@autoscientist.com"],"from":"gkchai@umich.edu"}
p24
tp25
a(S'to'
p26
V"Krishna C. Garikipati" <gkciitd@gmail.com>
p27
tp28
a(S'html'
p29
V<div dir="ltr">sadfsfsdasfsd</div>\u000a
p30
tp31
a(S'sender_ip'
p32
V209.85.218.52
p33
tp34
a(S'subject'
p35
Vfdadsa
p36
tp37
a(S'dkim'
p38
Vnone
p39
tp40
a(S'SPF'
p41
Vpass
p42
tp43
a(S'charsets'
p44
V{"to":"UTF-8","cc":"UTF-8","html":"UTF-8","subject":"UTF-8","from":"UTF-8","text":"UTF-8"}
p45
tp46
atRp47
.