cwerkzeug.datastructures
ImmutableMultiDict
p1
((lp2
(S'spam_score'
p3
V3.4
p4
tp5
a(S'spam_report'
p6
VSpam detection software, running on the system "mx-023.sjc1.sendgrid.net", has\u000aidentified this incoming email as possible spam.  The original message\u000ahas been attached to this so you can view it (if it isn't spam) or label\u000asimilar future email.  If you have any questions, see\u000a@@CONTACT_ADDRESS@@ for details.\u000a\u000aContent preview:  Ok. Let's schedule a meeting at 7 AM. Fusce donec est odio.\u000a   Porta fames lacinia elementum nam massa tincidunt phasellus amet enim nonummy\u000a   ve posuere. Ipsum fames etiam orci hymenaeos tellus. [...] \u000a\u000aContent analysis details:   (3.4 points, 5.0 required)\u000a\u000a pts rule name              description\u000a---- ---------------------- --------------------------------------------------\u000a 0.0 FREEMAIL_FROM          Sender email is freemail (busybob15[at]gmail.com)\u000a 3.4 FROM_MISSP_FREEMAIL    From misspaced + freemail provider\u000a\u000a
p7
tp8
a(S'from'
p9
VB<busybob15@gmail.com>
p10
tp11
a(S'attachments'
p12
V0
tp13
a(S'headers'
p14
VReceived: by mx-023.sjc1.sendgrid.net with SMTP id vefdwr7A3w Mon, 06 Jul 2015 00:17:23 +0000 (UTC)\u000aReceived: from mail-qk0-f195.google.com (mail-qk0-f195.google.com [209.85.220.195]) by mx-023.sjc1.sendgrid.net (Postfix) with ESMTPS id E0CAEC007CF for <sara@autoscientist.com>; Mon,  6 Jul 2015 00:17:22 +0000 (UTC)\u000aReceived: by qkbz76 with SMTP id z76so11022283qkb.0 for <sara@autoscientist.com>; Sun, 05 Jul 2015 17:17:21 -0700 (PDT)\u000aDKIM-Signature: v=1; a=rsa-sha256; c=relaxed/relaxed; d=gmail.com; s=20120113; h=message-id:date:from:to:mime-version:content-type:cc:subject; bh=xvkpgv1oRQ2G4A32FUEUEUrmE7zORqmZ1AgqoILlLCo=; b=P68PRy9DRTKFUGYHG4y48zlHlualAzqdem01kft1mPDqMY4fqjmBw92zdQvwfYAZkv Fb/HYDirRcwDCZ+qSbakvewpkQNGOpdB/wLwUo7U1X5SPVha6rWiarg4EhswuA/Sd/xn hwxHCxa4TQ5KH/xwysvv+3zZOC5OrU6J5Kjl3Mlhm+IXMUVj+LIzN3CKU5/h5+18adNu WPIbbqx19ULtNvanFY2Sr51ca4GXHqvX6ozS0f7RZWqnm3xJvRVsGku75a/x0Kpoodx0 GR5IXYR1aEf0q0cfE48diYiZlWbSxWcCYwz/Tjb4cfaU6G9lBTdFOFh3pPLUCZqskn2l GPBA==\u000aX-Received: by 10.140.234.131 with SMTP id f125mr11716073qhc.30.1436141841773; Sun, 05 Jul 2015 17:17:21 -0700 (PDT)\u000aReceived: from ip-172-31-33-83.ec2.internal (ec2-54-165-171-101.compute-1.amazonaws.com. [54.165.171.101]) by mx.google.com with ESMTPSA id 25sm8438969qkw.13.2015.07.05.17.17.21 (version=TLSv1.2 cipher=ECDHE-RSA-AES128-GCM-SHA256 bits=128/128); Sun, 05 Jul 2015 17:17:21 -0700 (PDT)\u000aMessage-ID: <5599c911.9916370a.5d0ab.ffffc558@mx.google.com>\u000aDate: Sun, 05 Jul 2015 17:17:21 -0700 (PDT)\u000afrom: B<busybob15@gmail.com>\u000ato: F1<freetom15@gmail.com>\u000amime-version: 1.0\u000acontent-type: text/plain; charset=UTF-8\u000acc: Sara<sara@autoscientist.com>\u000asubject: Let's meet ? [TestID: wOFJSvZScB]\u000a
p15
tp16
a(S'cc'
p17
VSara<sara@autoscientist.com>
p18
tp19
a(S'text'
p20
VOk. Let's schedule a meeting at 7 AM. Fusce donec est odio. Porta fames lacinia elementum nam massa tincidunt phasellus amet enim nonummy ve posuere. Ipsum fames etiam orci hymenaeos tellus.\u000a
p21
tp22
a(S'envelope'
p23
V{"to":["sara@autoscientist.com"],"from":"busybob15@gmail.com"}
p24
tp25
a(S'to'
p26
VF1<freetom15@gmail.com>
p27
tp28
a(S'sender_ip'
p29
V209.85.220.195
p30
tp31
a(S'subject'
p32
VLet's meet ? [TestID: wOFJSvZScB]
p33
tp34
a(S'dkim'
p35
V{@gmail.com : pass}
p36
tp37
a(S'SPF'
p38
Vpass
p39
tp40
a(S'charsets'
p41
V{"to":"UTF-8","cc":"UTF-8","subject":"UTF-8","from":"UTF-8","text":"UTF-8"}
p42
tp43
atRp44
.