cwerkzeug.datastructures
ImmutableMultiDict
p1
((lp2
(S'spam_score'
p3
V3.4
p4
tp5
a(S'spam_report'
p6
VSpam detection software, running on the system "mx0022p1mdw1.sendgrid.net", has\u000aidentified this incoming email as possible spam.  The original message\u000ahas been attached to this so you can view it (if it isn't spam) or label\u000asimilar future email.  If you have any questions, see\u000a@@CONTACT_ADDRESS@@ for details.\u000a\u000aContent preview:  Ok. Let's schedule a meeting at 8 AM. Velit donec. Risus magna.\u000a   Massa netus quisque. [...] \u000a\u000aContent analysis details:   (3.4 points, 5.0 required)\u000a\u000a pts rule name              description\u000a---- ---------------------- --------------------------------------------------\u000a 0.0 FREEMAIL_FROM          Sender email is freemail (busybob15[at]gmail.com)\u000a 3.4 FROM_MISSP_FREEMAIL    From misspaced + freemail provider\u000a\u000a
p7
tp8
a(S'from'
p9
VB<busybob15@gmail.com>
p10
tp11
a(S'attachments'
p12
V0
tp13
a(S'headers'
p14
VReceived: by mx0022p1mdw1.sendgrid.net with SMTP id oCKhzFFdem Thu, 09 Jul 2015 08:18:34 +0000 (UTC)\u000aReceived: from mail-qk0-f181.google.com (mail-qk0-f181.google.com [209.85.220.181]) by mx0022p1mdw1.sendgrid.net (Postfix) with ESMTPS id 1D9835C11AB for <sara@autoscientist.com>; Thu,  9 Jul 2015 08:18:33 +0000 (UTC)\u000aReceived: by qkeo142 with SMTP id o142so181166784qke.1 for <sara@autoscientist.com>; Thu, 09 Jul 2015 01:18:33 -0700 (PDT)\u000aDKIM-Signature: v=1; a=rsa-sha256; c=relaxed/relaxed; d=gmail.com; s=20120113; h=message-id:date:from:to:mime-version:content-type:cc:subject; bh=NkbxGBcHtEc2XIsTy1LQFA7FGNxP0Bi7UQWvsXCu3eo=; b=lp1dpNqUMy9OeW1jsb3QwaBim6CHTCuy5x4IK+BnLmdZWMrLSS63BH8h+84qabvxJN h0fyETYzdfc522vkdCo+8wkvc5nmnstuvk9+4gB8W/mcxkyGyQBbk8Z2Yhp1CJBDKXvT 0ACIxuj9q9DVT4g8NOB3mx594UMIzyJn/38vyl/dHCPYcpA+t/yYu8ZI4I2q/8CMRW67 poFRYMZMhI8dvnycd9HTHln/4OFnio+xTm1+pLLJqYf9vvhjedS4pl7n8F9p3qTciHcE Bm5vsBZj8lj+QhSYClYdpSJRTC02fATiOwwjIdfTtx7NfnbHlBdIUOzI4K2xcKYJ/UkU uJZg==\u000aX-Received: by 10.140.85.85 with SMTP id m79mr22860617qgd.37.1436429913377; Thu, 09 Jul 2015 01:18:33 -0700 (PDT)\u000aReceived: from ip-172-31-33-83.ec2.internal (ec2-54-165-171-101.compute-1.amazonaws.com. [54.165.171.101]) by smtp.gmail.com with ESMTPSA id 7sm2882106qky.29.2015.07.09.01.18.32 (version=TLSv1.2 cipher=ECDHE-RSA-AES128-GCM-SHA256 bits=128/128); Thu, 09 Jul 2015 01:18:33 -0700 (PDT)\u000aMessage-ID: <559e2e59.8718370a.b5f55.ffffd617@mx.google.com>\u000aDate: Thu, 09 Jul 2015 01:18:33 -0700 (PDT)\u000afrom: B<busybob15@gmail.com>\u000ato: F1<freetom15@gmail.com>\u000amime-version: 1.0\u000acontent-type: text/plain; charset=UTF-8\u000acc: Sara<sara@autoscientist.com>\u000asubject: Let's meet ? [TestID: ZlsPSWbJPF]\u000a
p15
tp16
a(S'cc'
p17
VSara<sara@autoscientist.com>
p18
tp19
a(S'text'
p20
VOk. Let's schedule a meeting at 8 AM. Velit donec. Risus magna. Massa netus quisque.\u000a
p21
tp22
a(S'envelope'
p23
V{"to":["sara@autoscientist.com"],"from":"busybob15@gmail.com"}
p24
tp25
a(S'to'
p26
VF1<freetom15@gmail.com>
p27
tp28
a(S'sender_ip'
p29
V209.85.220.181
p30
tp31
a(S'subject'
p32
VLet's meet ? [TestID: ZlsPSWbJPF]
p33
tp34
a(S'dkim'
p35
V{@gmail.com : pass}
p36
tp37
a(S'SPF'
p38
Vpass
p39
tp40
a(S'charsets'
p41
V{"to":"UTF-8","cc":"UTF-8","subject":"UTF-8","from":"UTF-8","text":"UTF-8"}
p42
tp43
atRp44
.